target datalayout = "e-m:e-p270:32:32-p271:32:32-p272:64:64-i64:64-i128:128-f80:128-n8:16:32:64-S128"
target triple = "x86_64-pc-linux-gnu"

; Function Attrs: nounwind sspstrong uwtable
define dso_local zeroext i1 @tcg_op_deposit_valid(i32 noundef %0, i32 noundef %1, i32 noundef %2) #0 {
  %4 = alloca i32, align 4
  %5 = alloca i32, align 4
  %6 = alloca i32, align 4
  %7 = alloca i32, align 4
  store i32 %0, ptr %4, align 4
  store i32 %1, ptr %5, align 4
  store i32 %2, ptr %6, align 4
  call void @llvm.lifetime.start.p0(i64 4, ptr %7) #19
  store i32 0, ptr %7, align 4, !annotation !4
  br label %8

8:                                                ; preds = %3
  %9 = load i32, ptr %4, align 4
  %10 = icmp eq i32 %9, 0
  br i1 %10, label %15, label %11

11:                                               ; preds = %8
  %12 = load i32, ptr %4, align 4
  %13 = icmp eq i32 %12, 1
  br i1 %13, label %15, label %14

14:                                               ; preds = %11
  unreachable

15:                                               ; preds = %11, %8
  br label %16

16:                                               ; preds = %15
  br label %17

17:                                               ; preds = %16
  %18 = load i32, ptr %4, align 4
  %19 = icmp eq i32 %18, 0
  %20 = select i1 %19, i32 32, i32 64
  store i32 %20, ptr %7, align 4
  br label %21

21:                                               ; preds = %17
  %22 = load i32, ptr %5, align 4
  %23 = load i32, ptr %7, align 4
  %24 = icmp ult i32 %22, %23
  br i1 %24, label %26, label %25

25:                                               ; preds = %21
  unreachable

26:                                               ; preds = %21
  br label %27

27:                                               ; preds = %26
  br label %28

28:                                               ; preds = %27
  br label %29

29:                                               ; preds = %28
  %30 = load i32, ptr %6, align 4
  %31 = icmp ugt i32 %30, 0
  br i1 %31, label %33, label %32

32:                                               ; preds = %29
  unreachable

33:                                               ; preds = %29
  br label %34

34:                                               ; preds = %33
  br label %35

35:                                               ; preds = %34
  br label %36

36:                                               ; preds = %35
  %37 = load i32, ptr %6, align 4
  %38 = load i32, ptr %7, align 4
  %39 = load i32, ptr %5, align 4
  %40 = sub i32 %38, %39
  %41 = icmp ule i32 %37, %40
  br i1 %41, label %43, label %42

42:                                               ; preds = %36
  unreachable

43:                                               ; preds = %36
  br label %44

44:                                               ; preds = %43
  br label %45

45:                                               ; preds = %44
  %46 = load i32, ptr %5, align 4
  %47 = icmp eq i32 %46, 0
  br i1 %47, label %48, label %54

48:                                               ; preds = %45
  %49 = load i32, ptr %6, align 4
  %50 = icmp eq i32 %49, 8
  br i1 %50, label %55, label %51

51:                                               ; preds = %48
  %52 = load i32, ptr %6, align 4
  %53 = icmp eq i32 %52, 16
  br i1 %53, label %55, label %54

54:                                               ; preds = %51, %45
  br label %55

55:                                               ; preds = %54, %51, %48
  %56 = phi i1 [ true, %51 ], [ true, %48 ], [ false, %54 ]
  call void @llvm.lifetime.end.p0(i64 4, ptr %7) #19
  ret i1 %56
}