; Function Attrs: mustprogress nofree norecurse nosync nounwind sspstrong willreturn memory(inaccessiblemem: write) uwtable
define dso_local noundef zeroext i1 @tcg_op_deposit_valid(i32 noundef %0, i32 noundef %1, i32 noundef %2) local_unnamed_addr #14 {
  %4 = icmp eq i32 %0, 0
  %or.cond = icmp ult i32 %0, 2
  tail call void @llvm.assume(i1 %or.cond)
  %5 = select i1 %4, i32 32, i32 64
  %6 = icmp ult i32 %1, %5
  tail call void @llvm.assume(i1 %6)
  %7 = icmp ne i32 %2, 0
  tail call void @llvm.assume(i1 %7)
  %8 = sub nsw i32 %5, %1
  %9 = icmp ule i32 %2, %8
  tail call void @llvm.assume(i1 %9)
  %10 = add i32 %2, -8
  %switch.and = and i32 %10, -9
  %11 = or i32 %switch.and, %1
  %12 = icmp eq i32 %11, 0
  ret i1 %12
}